target datalayout = "e-m:e-p270:32:32-p271:32:32-p272:64:64-i64:64-i128:128-f80:128-n8:16:32:64-S128"
target triple = "x86_64-pc-linux-gnu"

%struct.deparse_namespace = type { ptr, ptr, ptr, ptr, ptr, ptr, ptr, ptr, i8, ptr, ptr, ptr, ptr, ptr, ptr, ptr, ptr, ptr, i32, ptr }

; Function Attrs: nounwind uwtable
define internal void @push_child_plan(ptr noundef %0, ptr noundef %1, ptr noundef %2) #0 {
  %4 = alloca ptr, align 8
  %5 = alloca ptr, align 8
  %6 = alloca ptr, align 8
  store ptr %0, ptr %4, align 8
  store ptr %1, ptr %5, align 8
  store ptr %2, ptr %6, align 8
  %7 = load ptr, ptr %6, align 8
  %8 = load ptr, ptr %4, align 8
  call void @llvm.memcpy.p0.p0.i64(ptr align 8 %7, ptr align 8 %8, i64 160, i1 false)
  %9 = load ptr, ptr %4, align 8
  %10 = getelementptr inbounds nuw %struct.deparse_namespace, ptr %9, i32 0, i32 10
  %11 = load ptr, ptr %10, align 8
  %12 = load ptr, ptr %4, align 8
  %13 = getelementptr inbounds nuw %struct.deparse_namespace, ptr %12, i32 0, i32 11
  %14 = load ptr, ptr %13, align 8
  %15 = call ptr @lcons(ptr noundef %11, ptr noundef %14)
  %16 = load ptr, ptr %4, align 8
  %17 = getelementptr inbounds nuw %struct.deparse_namespace, ptr %16, i32 0, i32 11
  store ptr %15, ptr %17, align 8
  %18 = load ptr, ptr %4, align 8
  %19 = load ptr, ptr %5, align 8
  call void @set_deparse_plan(ptr noundef %18, ptr noundef %19)
  ret void
}