; Function Attrs: nounwind uwtable
define internal fastcc void @push_child_plan(ptr noundef captures(none) %0, ptr noundef %1, ptr noundef nonnull writeonly captures(none) initializes((0, 160)) %2) unnamed_addr #0 {
  tail call void @llvm.memcpy.p0.p0.i64(ptr noundef nonnull align 8 dereferenceable(160) %2, ptr noundef nonnull align 8 dereferenceable(160) %0, i64 160, i1 false)
  %4 = getelementptr inbounds nuw i8, ptr %0, i64 80
  %5 = load ptr, ptr %4, align 8
  %6 = getelementptr inbounds nuw i8, ptr %0, i64 88
  %7 = load ptr, ptr %6, align 8
  %8 = tail call ptr @lcons(ptr noundef %5, ptr noundef %7) #11
  store ptr %8, ptr %6, align 8
  tail call fastcc void @set_deparse_plan(ptr noundef nonnull %0, ptr noundef %1)
  ret void
}